; Function Attrs: mustprogress nofree norecurse nounwind willreturn memory(readwrite, inaccessiblemem: none) uwtable
define void @_ZN7rocksdb19ThreadStatusUpdater31IncreaseThreadOperationPropertyEim(ptr noundef nonnull readnone align 8 captures(none) dereferenceable(216) %0, i32 noundef %1, i64 noundef %2) local_unnamed_addr #8 align 2 {
  %4 = tail call align 8 ptr @llvm.threadlocal.address.p0(ptr align 8 @_ZN7rocksdb19ThreadStatusUpdater19thread_status_data_E)
  %5 = load ptr, ptr %4, align 8, !tbaa !14
  %6 = icmp eq ptr %5, null
  br i1 %6, label %_ZN7rocksdb19ThreadStatusUpdater20GetLocalThreadStatusEv.exit.thread, label %7

7:                                                ; preds = %3
  %8 = load atomic i8, ptr %5 monotonic, align 1
  %9 = trunc i8 %8 to i1
  br i1 %9, label %_ZN7rocksdb19ThreadStatusUpdater20GetLocalThreadStatusEv.exit, label %_ZN7rocksdb19ThreadStatusUpdater20GetLocalThreadStatusEv.exit.thread

_ZN7rocksdb19ThreadStatusUpdater20GetLocalThreadStatusEv.exit: ; preds = %7
  %10 = getelementptr inbounds nuw i8, ptr %5, i64 56
  %11 = sext i32 %1 to i64
  %12 = getelementptr inbounds [6 x %"struct.std::atomic.0"], ptr %10, i64 0, i64 %11
  %13 = atomicrmw add ptr %12, i64 %2 monotonic, align 8
  br label %_ZN7rocksdb19ThreadStatusUpdater20GetLocalThreadStatusEv.exit.thread

_ZN7rocksdb19ThreadStatusUpdater20GetLocalThreadStatusEv.exit.thread: ; preds = %7, %3, %_ZN7rocksdb19ThreadStatusUpdater20GetLocalThreadStatusEv.exit
  ret void
}